target datalayout = "e-m:e-p270:32:32-p271:32:32-p272:64:64-i64:64-i128:128-f80:128-n8:16:32:64-S128"
target triple = "x86_64-pc-linux-gnu"

@_ZN11KnownIssuesD1Ev = unnamed_addr alias void (ptr), ptr @_ZN11KnownIssuesD2Ev

; Function Attrs: mustprogress nounwind uwtable
define void @udbg_knownIssue_close(ptr noundef %0) #0 {
  %2 = alloca ptr, align 8
  %3 = alloca ptr, align 8
  store ptr %0, ptr %2, align 8, !tbaa !22
  call void @llvm.lifetime.start.p0(i64 8, ptr %3) #13
  %4 = load ptr, ptr %2, align 8, !tbaa !22
  store ptr %4, ptr %3, align 8, !tbaa !45
  %5 = load ptr, ptr %3, align 8, !tbaa !45
  %6 = icmp eq ptr %5, null
  br i1 %6, label %8, label %7

7:                                                ; preds = %1
  call void @_ZN11KnownIssuesD1Ev(ptr noundef nonnull align 8 dereferenceable(48) %5) #13
  call void @_ZdlPvm(ptr noundef %5, i64 noundef 48) #24
  br label %8

8:                                                ; preds = %7, %1
  call void @llvm.lifetime.end.p0(i64 8, ptr %3) #13
  ret void
}