; Function Attrs: mustprogress nounwind uwtable
define void @udbg_knownIssue_close(ptr noundef %0) local_unnamed_addr #0 {
  %2 = icmp eq ptr %0, null
  br i1 %2, label %4, label %3

3:                                                ; preds = %1
  tail call void @_ZN11KnownIssuesD1Ev(ptr noundef nonnull align 8 dereferenceable(48) %0) #26
  tail call void @_ZdlPvm(ptr noundef nonnull %0, i64 noundef 48) #30
  br label %4

4:                                                ; preds = %3, %1
  ret void
}